
a.out:     формат файла elf32-littleriscv


Дизассемблирование раздела .text:

00010054 <fib>:
   10054:	fe010113          	addi	sp,sp,-32
   10058:	00112e23          	sw	ra,28(sp)
   1005c:	00812c23          	sw	s0,24(sp)
   10060:	00912a23          	sw	s1,20(sp)
   10064:	02010413          	addi	s0,sp,32
   10068:	fea42623          	sw	a0,-20(s0)
   1006c:	fec42703          	lw	a4,-20(s0)
   10070:	00100793          	li	a5,1
   10074:	04f70263          	beq	a4,a5,100b8 <fib+0x64>
   10078:	fec42783          	lw	a5,-20(s0)
   1007c:	02078a63          	beqz	a5,100b0 <fib+0x5c>
   10080:	fec42783          	lw	a5,-20(s0)
   10084:	fff78793          	addi	a5,a5,-1
   10088:	00078513          	mv	a0,a5
   1008c:	fc9ff0ef          	jal	ra,10054 <fib>
   10090:	00050493          	mv	s1,a0
   10094:	fec42783          	lw	a5,-20(s0)
   10098:	ffe78793          	addi	a5,a5,-2
   1009c:	00078513          	mv	a0,a5
   100a0:	fb5ff0ef          	jal	ra,10054 <fib>
   100a4:	00050793          	mv	a5,a0
   100a8:	00f487b3          	add	a5,s1,a5
   100ac:	0100006f          	j	100bc <fib+0x68>
   100b0:	00000793          	li	a5,0
   100b4:	0080006f          	j	100bc <fib+0x68>
   100b8:	00100793          	li	a5,1
   100bc:	00078513          	mv	a0,a5
   100c0:	01c12083          	lw	ra,28(sp)
   100c4:	01812403          	lw	s0,24(sp)
   100c8:	01412483          	lw	s1,20(sp)
   100cc:	02010113          	addi	sp,sp,32
   100d0:	00008067          	ret

000100d4 <_start>:
   100d4:	ff010113          	addi	sp,sp,-16
   100d8:	00112623          	sw	ra,12(sp)
   100dc:	00812423          	sw	s0,8(sp)
   100e0:	01010413          	addi	s0,sp,16
   100e4:	01c000ef          	jal	ra,10100 <main>
   100e8:	00000073          	ecall
   100ec:	00000013          	nop
   100f0:	00c12083          	lw	ra,12(sp)
   100f4:	00812403          	lw	s0,8(sp)
   100f8:	01010113          	addi	sp,sp,16
   100fc:	00008067          	ret

00010100 <main>:
   10100:	fd010113          	addi	sp,sp,-48
   10104:	02112623          	sw	ra,44(sp)
   10108:	02812423          	sw	s0,40(sp)
   1010c:	03010413          	addi	s0,sp,48
   10110:	03200793          	li	a5,50
   10114:	fef42023          	sw	a5,-32(s0)
   10118:	06500793          	li	a5,101
   1011c:	fcf42e23          	sw	a5,-36(s0)
   10120:	01900513          	li	a0,25
   10124:	f31ff0ef          	jal	ra,10054 <fib>
   10128:	fca42c23          	sw	a0,-40(s0)
   1012c:	fe042423          	sw	zero,-24(s0)
   10130:	00100793          	li	a5,1
   10134:	fef42623          	sw	a5,-20(s0)
   10138:	0200006f          	j	10158 <main+0x58>
   1013c:	fe842703          	lw	a4,-24(s0)
   10140:	fec42783          	lw	a5,-20(s0)
   10144:	00f707b3          	add	a5,a4,a5
   10148:	fef42423          	sw	a5,-24(s0)
   1014c:	fec42783          	lw	a5,-20(s0)
   10150:	00178793          	addi	a5,a5,1
   10154:	fef42623          	sw	a5,-20(s0)
   10158:	fec42703          	lw	a4,-20(s0)
   1015c:	02400793          	li	a5,36
   10160:	fce7dee3          	ble	a4,a5,1013c <main+0x3c>
   10164:	fd442783          	lw	a5,-44(s0)
   10168:	4017d793          	srai	a5,a5,0x1
   1016c:	fef42423          	sw	a5,-24(s0)
   10170:	fe842783          	lw	a5,-24(s0)
   10174:	14d7e793          	ori	a5,a5,333
   10178:	fef42423          	sw	a5,-24(s0)
   1017c:	fdc42783          	lw	a5,-36(s0)
   10180:	0017d793          	srli	a5,a5,0x1
   10184:	fe042703          	lw	a4,-32(s0)
   10188:	00f737b3          	sltu	a5,a4,a5
   1018c:	0ff7f793          	andi	a5,a5,255
   10190:	fef42023          	sw	a5,-32(s0)
   10194:	fe842783          	lw	a5,-24(s0)
   10198:	0647a793          	slti	a5,a5,100
   1019c:	0ff7f793          	andi	a5,a5,255
   101a0:	fcf42823          	sw	a5,-48(s0)
   101a4:	02400793          	li	a5,36
   101a8:	fef42623          	sw	a5,-20(s0)
   101ac:	0200006f          	j	101cc <main+0xcc>
   101b0:	fe442703          	lw	a4,-28(s0)
   101b4:	fec42783          	lw	a5,-20(s0)
   101b8:	00f707b3          	add	a5,a4,a5
   101bc:	fef42223          	sw	a5,-28(s0)
   101c0:	fec42783          	lw	a5,-20(s0)
   101c4:	fff78793          	addi	a5,a5,-1
   101c8:	fef42623          	sw	a5,-20(s0)
   101cc:	fec42783          	lw	a5,-20(s0)
   101d0:	fe07d0e3          	bgez	a5,101b0 <main+0xb0>
   101d4:	fe442783          	lw	a5,-28(s0)
   101d8:	4017d793          	srai	a5,a5,0x1
   101dc:	fef42223          	sw	a5,-28(s0)
   101e0:	fe842703          	lw	a4,-24(s0)
   101e4:	fe442783          	lw	a5,-28(s0)
   101e8:	00f707b3          	add	a5,a4,a5
   101ec:	fd042703          	lw	a4,-48(s0)
   101f0:	00f707b3          	add	a5,a4,a5
   101f4:	fcf42a23          	sw	a5,-44(s0)
   101f8:	fd442703          	lw	a4,-44(s0)
   101fc:	fd842783          	lw	a5,-40(s0)
   10200:	00f707b3          	add	a5,a4,a5
   10204:	fcf42a23          	sw	a5,-44(s0)
   10208:	fd442783          	lw	a5,-44(s0)
   1020c:	00078513          	mv	a0,a5
   10210:	02c12083          	lw	ra,44(sp)
   10214:	02812403          	lw	s0,40(sp)
   10218:	03010113          	addi	sp,sp,48
   1021c:	00008067          	ret
